; ModuleID = '50/899.c'
source_filename = "50/899.c"
target datalayout = "e-m:e-p270:32:32-p271:32:32-p272:64:64-i64:64-f80:128-n8:16:32:64-S128"
target triple = "x86_64-pc-linux-gnu"

@.str = private unnamed_addr constant [3 x i8] c"%d\00", align 1
@.str.1 = private unnamed_addr constant [4 x i8] c"%d\0A\00", align 1

; Function Attrs: noinline nounwind uwtable
define dso_local i32 @main() #0 {
  %1 = alloca i32, align 4
  %2 = alloca i32, align 4
  %3 = alloca [12 x i32], align 16
  %4 = alloca i32, align 4
  store i32 0, i32* %1, align 4
  %5 = call i32 (i8*, ...) @__isoc99_scanf(i8* getelementptr inbounds ([3 x i8], [3 x i8]* @.str, i64 0, i64 0), i32* %2)
  %6 = load i32, i32* %2, align 4
  %7 = add nsw i32 %6, 5
  %8 = getelementptr inbounds [12 x i32], [12 x i32]* %3, i64 0, i64 0
  store i32 %7, i32* %8, align 16
  %9 = load i32, i32* %2, align 4
  %10 = add nsw i32 %9, 1
  %11 = getelementptr inbounds [12 x i32], [12 x i32]* %3, i64 0, i64 1
  store i32 %10, i32* %11, align 4
  %12 = load i32, i32* %2, align 4
  %13 = add nsw i32 %12, 1
  %14 = getelementptr inbounds [12 x i32], [12 x i32]* %3, i64 0, i64 2
  store i32 %13, i32* %14, align 8
  %15 = load i32, i32* %2, align 4
  %16 = add nsw i32 %15, 4
  %17 = getelementptr inbounds [12 x i32], [12 x i32]* %3, i64 0, i64 3
  store i32 %16, i32* %17, align 4
  %18 = load i32, i32* %2, align 4
  %19 = add nsw i32 %18, 6
  %20 = getelementptr inbounds [12 x i32], [12 x i32]* %3, i64 0, i64 4
  store i32 %19, i32* %20, align 16
  %21 = load i32, i32* %2, align 4
  %22 = add nsw i32 %21, 2
  %23 = getelementptr inbounds [12 x i32], [12 x i32]* %3, i64 0, i64 5
  store i32 %22, i32* %23, align 4
  %24 = load i32, i32* %2, align 4
  %25 = add nsw i32 %24, 4
  %26 = getelementptr inbounds [12 x i32], [12 x i32]* %3, i64 0, i64 6
  store i32 %25, i32* %26, align 8
  %27 = load i32, i32* %2, align 4
  %28 = add nsw i32 %27, 0
  %29 = getelementptr inbounds [12 x i32], [12 x i32]* %3, i64 0, i64 7
  store i32 %28, i32* %29, align 4
  %30 = load i32, i32* %2, align 4
  %31 = add nsw i32 %30, 3
  %32 = getelementptr inbounds [12 x i32], [12 x i32]* %3, i64 0, i64 8
  store i32 %31, i32* %32, align 16
  %33 = load i32, i32* %2, align 4
  %34 = add nsw i32 %33, 5
  %35 = getelementptr inbounds [12 x i32], [12 x i32]* %3, i64 0, i64 9
  store i32 %34, i32* %35, align 4
  %36 = load i32, i32* %2, align 4
  %37 = add nsw i32 %36, 1
  %38 = getelementptr inbounds [12 x i32], [12 x i32]* %3, i64 0, i64 10
  store i32 %37, i32* %38, align 8
  %39 = load i32, i32* %2, align 4
  %40 = add nsw i32 %39, 3
  %41 = getelementptr inbounds [12 x i32], [12 x i32]* %3, i64 0, i64 11
  store i32 %40, i32* %41, align 4
  store i32 0, i32* %4, align 4
  br label %42

42:                                               ; preds = %61, %0
  %43 = load i32, i32* %4, align 4
  %44 = icmp sle i32 %43, 11
  br i1 %44, label %45, label %64

45:                                               ; preds = %42
  %46 = load i32, i32* %4, align 4
  %47 = sext i32 %46 to i64
  %48 = getelementptr inbounds [12 x i32], [12 x i32]* %3, i64 0, i64 %47
  %49 = load i32, i32* %48, align 4
  %50 = icmp sgt i32 %49, 7
  br i1 %50, label %51, label %60

51:                                               ; preds = %45
  %52 = load i32, i32* %4, align 4
  %53 = sext i32 %52 to i64
  %54 = getelementptr inbounds [12 x i32], [12 x i32]* %3, i64 0, i64 %53
  %55 = load i32, i32* %54, align 4
  %56 = srem i32 %55, 7
  %57 = load i32, i32* %4, align 4
  %58 = sext i32 %57 to i64
  %59 = getelementptr inbounds [12 x i32], [12 x i32]* %3, i64 0, i64 %58
  store i32 %56, i32* %59, align 4
  br label %60

60:                                               ; preds = %51, %45
  br label %61

61:                                               ; preds = %60
  %62 = load i32, i32* %4, align 4
  %63 = add nsw i32 %62, 1
  store i32 %63, i32* %4, align 4
  br label %42

64:                                               ; preds = %42
  store i32 0, i32* %4, align 4
  br label %65

65:                                               ; preds = %79, %64
  %66 = load i32, i32* %4, align 4
  %67 = icmp sle i32 %66, 11
  br i1 %67, label %68, label %82

68:                                               ; preds = %65
  %69 = load i32, i32* %4, align 4
  %70 = sext i32 %69 to i64
  %71 = getelementptr inbounds [12 x i32], [12 x i32]* %3, i64 0, i64 %70
  %72 = load i32, i32* %71, align 4
  %73 = icmp eq i32 %72, 5
  br i1 %73, label %74, label %78

74:                                               ; preds = %68
  %75 = load i32, i32* %4, align 4
  %76 = add nsw i32 %75, 1
  %77 = call i32 (i8*, ...) @printf(i8* getelementptr inbounds ([4 x i8], [4 x i8]* @.str.1, i64 0, i64 0), i32 %76)
  br label %78

78:                                               ; preds = %74, %68
  br label %79

79:                                               ; preds = %78
  %80 = load i32, i32* %4, align 4
  %81 = add nsw i32 %80, 1
  store i32 %81, i32* %4, align 4
  br label %65

82:                                               ; preds = %65
  ret i32 0
}

declare dso_local i32 @__isoc99_scanf(i8*, ...) #1

declare dso_local i32 @printf(i8*, ...) #1


!llvm.module.flags = !{!0}
!llvm.ident = !{!1}

!0 = !{i32 1, !"wchar_size", i32 4}
!1 = !{!"clang version 10.0.0-4ubuntu1 "}
